target datalayout = "e-m:e-p270:32:32-p271:32:32-p272:64:64-i64:64-i128:128-f80:128-n8:16:32:64-S128"
target triple = "x86_64-pc-linux-gnu"

%struct.expert_field = type { i32, i32 }

@hf_sapdiag_item_ui_event_event_type = internal global i32 0, align 4
@hf_sapdiag_item_ui_event_control_type = internal global i32 0, align 4
@hf_sapdiag_item_ui_event_valid = internal global i32 0, align 4
@hf_sapdiag_item_ui_event_valid_MENU_POS = internal global i32 0, align 4
@hf_sapdiag_item_ui_event_valid_CONTROL_POS = internal global i32 0, align 4
@hf_sapdiag_item_ui_event_valid_NAVIGATION_DATA = internal global i32 0, align 4
@hf_sapdiag_item_ui_event_valid_FUNCTIONKEY_DATA = internal global i32 0, align 4
@hf_sapdiag_item_ui_event_control_row = internal global i32 0, align 4
@hf_sapdiag_item_ui_event_control_col = internal global i32 0, align 4
@hf_sapdiag_item_ui_event_navigation_data = internal global i32 0, align 4
@hf_sapdiag_item_ui_event_data = internal global i32 0, align 4
@hf_sapdiag_item_ui_event_container_nrs = internal global i32 0, align 4
@hf_sapdiag_item_ui_event_container = internal global i32 0, align 4
@ett_sapdiag = internal global i32 0, align 4
@ei_sapdiag_dynt_focus_more_cont_ids = internal global %struct.expert_field zeroinitializer, align 4
@.str.850 = private unnamed_addr constant [8 x i8] c"Unknown\00", align 1
@.str.1172 = private unnamed_addr constant [16 x i8] c", Event Type=%s\00", align 1
@.str.1173 = private unnamed_addr constant [18 x i8] c", Control Type=%s\00", align 1
@.str.1174 = private unnamed_addr constant [40 x i8] c"Number of Container IDs (%d) is invalid\00", align 1

; Function Attrs: null_pointer_is_valid sspstrong uwtable
define internal void @dissect_sapdiag_uievent(ptr noundef %0, ptr noundef %1, ptr noundef %2, i32 noundef %3, i32 noundef %4) #0 {
  %6 = alloca ptr, align 8
  %7 = alloca ptr, align 8
  %8 = alloca ptr, align 8
  %9 = alloca i32, align 4
  %10 = alloca i32, align 4
  %11 = alloca ptr, align 8
  %12 = alloca ptr, align 8
  %13 = alloca i8, align 1
  %14 = alloca i16, align 2
  %15 = alloca i16, align 2
  store ptr %0, ptr %6, align 8
  store ptr %1, ptr %7, align 8
  store ptr %2, ptr %8, align 8
  store i32 %3, ptr %9, align 4
  store i32 %4, ptr %10, align 4
  call void @llvm.lifetime.start.p0(i64 8, ptr %11) #3
  store ptr null, ptr %11, align 8
  call void @llvm.lifetime.start.p0(i64 8, ptr %12) #3
  store ptr null, ptr %12, align 8
  call void @llvm.lifetime.start.p0(i64 1, ptr %13) #3
  store i8 0, ptr %13, align 1
  call void @llvm.lifetime.start.p0(i64 2, ptr %14) #3
  store i16 0, ptr %14, align 2
  call void @llvm.lifetime.start.p0(i64 2, ptr %15) #3
  store i16 0, ptr %15, align 2
  %16 = load ptr, ptr %6, align 8
  %17 = load i32, ptr %9, align 4
  %18 = call zeroext i8 @tvb_get_uint8(ptr noundef %16, i32 noundef %17)
  store i8 %18, ptr %13, align 1
  %19 = load ptr, ptr %8, align 8
  %20 = load i32, ptr @hf_sapdiag_item_ui_event_valid, align 4
  %21 = load ptr, ptr %6, align 8
  %22 = load i32, ptr %9, align 4
  %23 = call ptr @proto_tree_add_item(ptr noundef %19, i32 noundef %20, ptr noundef %21, i32 noundef %22, i32 noundef 1, i32 noundef 0)
  store ptr %23, ptr %11, align 8
  %24 = load ptr, ptr %11, align 8
  %25 = load i32, ptr @ett_sapdiag, align 4
  %26 = call ptr @proto_item_add_subtree(ptr noundef %24, i32 noundef %25)
  store ptr %26, ptr %12, align 8
  %27 = load ptr, ptr %12, align 8
  %28 = load i32, ptr @hf_sapdiag_item_ui_event_valid_MENU_POS, align 4
  %29 = load ptr, ptr %6, align 8
  %30 = load i32, ptr %9, align 4
  %31 = call ptr @proto_tree_add_item(ptr noundef %27, i32 noundef %28, ptr noundef %29, i32 noundef %30, i32 noundef 1, i32 noundef 0)
  %32 = load ptr, ptr %12, align 8
  %33 = load i32, ptr @hf_sapdiag_item_ui_event_valid_CONTROL_POS, align 4
  %34 = load ptr, ptr %6, align 8
  %35 = load i32, ptr %9, align 4
  %36 = call ptr @proto_tree_add_item(ptr noundef %32, i32 noundef %33, ptr noundef %34, i32 noundef %35, i32 noundef 1, i32 noundef 0)
  %37 = load ptr, ptr %12, align 8
  %38 = load i32, ptr @hf_sapdiag_item_ui_event_valid_NAVIGATION_DATA, align 4
  %39 = load ptr, ptr %6, align 8
  %40 = load i32, ptr %9, align 4
  %41 = call ptr @proto_tree_add_item(ptr noundef %37, i32 noundef %38, ptr noundef %39, i32 noundef %40, i32 noundef 1, i32 noundef 0)
  %42 = load ptr, ptr %12, align 8
  %43 = load i32, ptr @hf_sapdiag_item_ui_event_valid_FUNCTIONKEY_DATA, align 4
  %44 = load ptr, ptr %6, align 8
  %45 = load i32, ptr %9, align 4
  %46 = call ptr @proto_tree_add_item(ptr noundef %42, i32 noundef %43, ptr noundef %44, i32 noundef %45, i32 noundef 1, i32 noundef 0)
  %47 = load i32, ptr %9, align 4
  %48 = add i32 %47, 1
  store i32 %48, ptr %9, align 4
  %49 = load i32, ptr %10, align 4
  %50 = sub i32 %49, 1
  store i32 %50, ptr %10, align 4
  %51 = load ptr, ptr %8, align 8
  %52 = load i32, ptr @hf_sapdiag_item_ui_event_event_type, align 4
  %53 = load ptr, ptr %6, align 8
  %54 = load i32, ptr %9, align 4
  %55 = call ptr @proto_tree_add_item(ptr noundef %51, i32 noundef %52, ptr noundef %53, i32 noundef %54, i32 noundef 2, i32 noundef 0)
  %56 = load ptr, ptr %8, align 8
  %57 = load ptr, ptr %6, align 8
  %58 = load i32, ptr %9, align 4
  %59 = call zeroext i16 @tvb_get_ntohs(ptr noundef %57, i32 noundef %58)
  %60 = zext i16 %59 to i32
  %61 = call ptr @val_to_str_const(i32 noundef %60, ptr noundef @sapdiag_item_ui_event_event_type_vals, ptr noundef @.str.850)
  call void (ptr, ptr, ...) @proto_item_append_text(ptr noundef %56, ptr noundef @.str.1172, ptr noundef %61)
  %62 = load i32, ptr %9, align 4
  %63 = add i32 %62, 2
  store i32 %63, ptr %9, align 4
  %64 = load i32, ptr %10, align 4
  %65 = sub i32 %64, 2
  store i32 %65, ptr %10, align 4
  %66 = load ptr, ptr %8, align 8
  %67 = load i32, ptr @hf_sapdiag_item_ui_event_control_type, align 4
  %68 = load ptr, ptr %6, align 8
  %69 = load i32, ptr %9, align 4
  %70 = call ptr @proto_tree_add_item(ptr noundef %66, i32 noundef %67, ptr noundef %68, i32 noundef %69, i32 noundef 2, i32 noundef 0)
  %71 = load ptr, ptr %8, align 8
  %72 = load ptr, ptr %6, align 8
  %73 = load i32, ptr %9, align 4
  %74 = call zeroext i16 @tvb_get_ntohs(ptr noundef %72, i32 noundef %73)
  %75 = zext i16 %74 to i32
  %76 = call ptr @val_to_str_const(i32 noundef %75, ptr noundef @sapdiag_item_ui_event_control_type_vals, ptr noundef @.str.850)
  call void (ptr, ptr, ...) @proto_item_append_text(ptr noundef %71, ptr noundef @.str.1173, ptr noundef %76)
  %77 = load i32, ptr %9, align 4
  %78 = add i32 %77, 2
  store i32 %78, ptr %9, align 4
  %79 = load i32, ptr %10, align 4
  %80 = sub i32 %79, 2
  store i32 %80, ptr %10, align 4
  %81 = load i8, ptr %13, align 1
  %82 = zext i8 %81 to i32
  %83 = and i32 %82, 4
  %84 = icmp ne i32 %83, 0
  br i1 %84, label %85, label %95

85:                                               ; preds = %5
  %86 = load ptr, ptr %8, align 8
  %87 = load i32, ptr @hf_sapdiag_item_ui_event_navigation_data, align 4
  %88 = load ptr, ptr %6, align 8
  %89 = load i32, ptr %9, align 4
  %90 = call ptr @proto_tree_add_item(ptr noundef %86, i32 noundef %87, ptr noundef %88, i32 noundef %89, i32 noundef 1, i32 noundef 0)
  %91 = load i32, ptr %9, align 4
  %92 = add i32 %91, 1
  store i32 %92, ptr %9, align 4
  %93 = load i32, ptr %10, align 4
  %94 = sub i32 %93, 1
  store i32 %94, ptr %10, align 4
  br label %132

95:                                               ; preds = %5
  %96 = load ptr, ptr %8, align 8
  %97 = load i32, ptr @hf_sapdiag_item_ui_event_data, align 4
  %98 = load ptr, ptr %6, align 8
  %99 = load i32, ptr %9, align 4
  %100 = call ptr @proto_tree_add_item(ptr noundef %96, i32 noundef %97, ptr noundef %98, i32 noundef %99, i32 noundef 1, i32 noundef 0)
  %101 = load i32, ptr %9, align 4
  %102 = add i32 %101, 1
  store i32 %102, ptr %9, align 4
  %103 = load i32, ptr %10, align 4
  %104 = sub i32 %103, 1
  store i32 %104, ptr %10, align 4
  %105 = load ptr, ptr %8, align 8
  %106 = load i32, ptr @hf_sapdiag_item_ui_event_data, align 4
  %107 = load ptr, ptr %6, align 8
  %108 = load i32, ptr %9, align 4
  %109 = call ptr @proto_tree_add_item(ptr noundef %105, i32 noundef %106, ptr noundef %107, i32 noundef %108, i32 noundef 1, i32 noundef 0)
  %110 = load i32, ptr %9, align 4
  %111 = add i32 %110, 1
  store i32 %111, ptr %9, align 4
  %112 = load i32, ptr %10, align 4
  %113 = sub i32 %112, 1
  store i32 %113, ptr %10, align 4
  %114 = load ptr, ptr %8, align 8
  %115 = load i32, ptr @hf_sapdiag_item_ui_event_data, align 4
  %116 = load ptr, ptr %6, align 8
  %117 = load i32, ptr %9, align 4
  %118 = call ptr @proto_tree_add_item(ptr noundef %114, i32 noundef %115, ptr noundef %116, i32 noundef %117, i32 noundef 1, i32 noundef 0)
  %119 = load i32, ptr %9, align 4
  %120 = add i32 %119, 1
  store i32 %120, ptr %9, align 4
  %121 = load i32, ptr %10, align 4
  %122 = sub i32 %121, 1
  store i32 %122, ptr %10, align 4
  %123 = load ptr, ptr %8, align 8
  %124 = load i32, ptr @hf_sapdiag_item_ui_event_data, align 4
  %125 = load ptr, ptr %6, align 8
  %126 = load i32, ptr %9, align 4
  %127 = call ptr @proto_tree_add_item(ptr noundef %123, i32 noundef %124, ptr noundef %125, i32 noundef %126, i32 noundef 1, i32 noundef 0)
  %128 = load i32, ptr %9, align 4
  %129 = add i32 %128, 1
  store i32 %129, ptr %9, align 4
  %130 = load i32, ptr %10, align 4
  %131 = sub i32 %130, 1
  store i32 %131, ptr %10, align 4
  br label %132

132:                                              ; preds = %95, %85
  %133 = load ptr, ptr %8, align 8
  %134 = load i32, ptr @hf_sapdiag_item_ui_event_control_row, align 4
  %135 = load ptr, ptr %6, align 8
  %136 = load i32, ptr %9, align 4
  %137 = call ptr @proto_tree_add_item(ptr noundef %133, i32 noundef %134, ptr noundef %135, i32 noundef %136, i32 noundef 2, i32 noundef 0)
  %138 = load i32, ptr %9, align 4
  %139 = add i32 %138, 2
  store i32 %139, ptr %9, align 4
  %140 = load i32, ptr %10, align 4
  %141 = sub i32 %140, 2
  store i32 %141, ptr %10, align 4
  %142 = load ptr, ptr %8, align 8
  %143 = load i32, ptr @hf_sapdiag_item_ui_event_control_col, align 4
  %144 = load ptr, ptr %6, align 8
  %145 = load i32, ptr %9, align 4
  %146 = call ptr @proto_tree_add_item(ptr noundef %142, i32 noundef %143, ptr noundef %144, i32 noundef %145, i32 noundef 2, i32 noundef 0)
  %147 = load i32, ptr %9, align 4
  %148 = add i32 %147, 2
  store i32 %148, ptr %9, align 4
  %149 = load i32, ptr %10, align 4
  %150 = sub i32 %149, 2
  store i32 %150, ptr %10, align 4
  %151 = load ptr, ptr %6, align 8
  %152 = load i32, ptr %9, align 4
  %153 = call zeroext i16 @tvb_get_ntohs(ptr noundef %151, i32 noundef %152)
  store i16 %153, ptr %14, align 2
  store i16 %153, ptr %15, align 2
  %154 = load ptr, ptr %8, align 8
  %155 = load i32, ptr @hf_sapdiag_item_ui_event_container_nrs, align 4
  %156 = load ptr, ptr %6, align 8
  %157 = load i32, ptr %9, align 4
  %158 = call ptr @proto_tree_add_item(ptr noundef %154, i32 noundef %155, ptr noundef %156, i32 noundef %157, i32 noundef 2, i32 noundef 0)
  %159 = load i32, ptr %9, align 4
  %160 = add i32 %159, 2
  store i32 %160, ptr %9, align 4
  %161 = load i32, ptr %10, align 4
  %162 = sub i32 %161, 2
  store i32 %162, ptr %10, align 4
  br label %163

163:                                              ; preds = %172, %132
  %164 = load i16, ptr %15, align 2
  %165 = zext i16 %164 to i32
  %166 = icmp sgt i32 %165, 0
  br i1 %166, label %167, label %170

167:                                              ; preds = %163
  %168 = load i32, ptr %10, align 4
  %169 = icmp ugt i32 %168, 0
  br label %170

170:                                              ; preds = %167, %163
  %171 = phi i1 [ false, %163 ], [ %169, %167 ]
  br i1 %171, label %172, label %184

172:                                              ; preds = %170
  %173 = load ptr, ptr %8, align 8
  %174 = load i32, ptr @hf_sapdiag_item_ui_event_container, align 4
  %175 = load ptr, ptr %6, align 8
  %176 = load i32, ptr %9, align 4
  %177 = call ptr @proto_tree_add_item(ptr noundef %173, i32 noundef %174, ptr noundef %175, i32 noundef %176, i32 noundef 1, i32 noundef 0)
  %178 = load i32, ptr %9, align 4
  %179 = add i32 %178, 1
  store i32 %179, ptr %9, align 4
  %180 = load i32, ptr %10, align 4
  %181 = sub i32 %180, 1
  store i32 %181, ptr %10, align 4
  %182 = load i16, ptr %15, align 2
  %183 = add i16 %182, -1
  store i16 %183, ptr %15, align 2
  br label %163, !llvm.loop !14

184:                                              ; preds = %170
  %185 = load i16, ptr %15, align 2
  %186 = zext i16 %185 to i32
  %187 = icmp sgt i32 %186, 0
  br i1 %187, label %188, label %194

188:                                              ; preds = %184
  %189 = load ptr, ptr %7, align 8
  %190 = load ptr, ptr %8, align 8
  %191 = load i16, ptr %14, align 2
  %192 = zext i16 %191 to i32
  %193 = call ptr (ptr, ptr, ptr, ptr, ...) @expert_add_info_format(ptr noundef %189, ptr noundef %190, ptr noundef @ei_sapdiag_dynt_focus_more_cont_ids, ptr noundef @.str.1174, i32 noundef %192)
  br label %194

194:                                              ; preds = %188, %184
  call void @llvm.lifetime.end.p0(i64 2, ptr %15) #3
  call void @llvm.lifetime.end.p0(i64 2, ptr %14) #3
  call void @llvm.lifetime.end.p0(i64 1, ptr %13) #3
  call void @llvm.lifetime.end.p0(i64 8, ptr %12) #3
  call void @llvm.lifetime.end.p0(i64 8, ptr %11) #3
  ret void
}