; Function Attrs: null_pointer_is_valid sspstrong uwtable
define internal fastcc void @dissect_sapdiag_uievent(ptr noundef %0, ptr noundef %1, ptr noundef %2, i32 noundef %3, i32 noundef range(i32 0, -2147483648) %4) unnamed_addr #0 {
  %6 = tail call zeroext i8 @tvb_get_uint8(ptr noundef %0, i32 noundef %3)
  %7 = load i32, ptr @hf_sapdiag_item_ui_event_valid, align 4
  %8 = tail call ptr @proto_tree_add_item(ptr noundef %2, i32 noundef %7, ptr noundef %0, i32 noundef %3, i32 noundef 1, i32 noundef 0)
  %9 = load i32, ptr @ett_sapdiag, align 4
  %10 = tail call ptr @proto_item_add_subtree(ptr noundef %8, i32 noundef %9)
  %11 = load i32, ptr @hf_sapdiag_item_ui_event_valid_MENU_POS, align 4
  %12 = tail call ptr @proto_tree_add_item(ptr noundef %10, i32 noundef %11, ptr noundef %0, i32 noundef %3, i32 noundef 1, i32 noundef 0)
  %13 = load i32, ptr @hf_sapdiag_item_ui_event_valid_CONTROL_POS, align 4
  %14 = tail call ptr @proto_tree_add_item(ptr noundef %10, i32 noundef %13, ptr noundef %0, i32 noundef %3, i32 noundef 1, i32 noundef 0)
  %15 = load i32, ptr @hf_sapdiag_item_ui_event_valid_NAVIGATION_DATA, align 4
  %16 = tail call ptr @proto_tree_add_item(ptr noundef %10, i32 noundef %15, ptr noundef %0, i32 noundef %3, i32 noundef 1, i32 noundef 0)
  %17 = load i32, ptr @hf_sapdiag_item_ui_event_valid_FUNCTIONKEY_DATA, align 4
  %18 = tail call ptr @proto_tree_add_item(ptr noundef %10, i32 noundef %17, ptr noundef %0, i32 noundef %3, i32 noundef 1, i32 noundef 0)
  %19 = add i32 %3, 1
  %20 = load i32, ptr @hf_sapdiag_item_ui_event_event_type, align 4
  %21 = tail call ptr @proto_tree_add_item(ptr noundef %2, i32 noundef %20, ptr noundef %0, i32 noundef %19, i32 noundef 2, i32 noundef 0)
  %22 = tail call zeroext i16 @tvb_get_ntohs(ptr noundef %0, i32 noundef %19)
  %23 = zext i16 %22 to i32
  %24 = tail call ptr @val_to_str_const(i32 noundef %23, ptr noundef nonnull @sapdiag_item_ui_event_event_type_vals, ptr noundef nonnull @.str.850)
  tail call void (ptr, ptr, ...) @proto_item_append_text(ptr noundef %2, ptr noundef nonnull @.str.1172, ptr noundef %24)
  %25 = add i32 %3, 3
  %26 = load i32, ptr @hf_sapdiag_item_ui_event_control_type, align 4
  %27 = tail call ptr @proto_tree_add_item(ptr noundef %2, i32 noundef %26, ptr noundef %0, i32 noundef %25, i32 noundef 2, i32 noundef 0)
  %28 = tail call zeroext i16 @tvb_get_ntohs(ptr noundef %0, i32 noundef %25)
  %29 = zext i16 %28 to i32
  %30 = tail call ptr @val_to_str_const(i32 noundef %29, ptr noundef nonnull @sapdiag_item_ui_event_control_type_vals, ptr noundef nonnull @.str.850)
  tail call void (ptr, ptr, ...) @proto_item_append_text(ptr noundef %2, ptr noundef nonnull @.str.1173, ptr noundef %30)
  %31 = add i32 %3, 5
  %32 = and i8 %6, 4
  %.not = icmp eq i8 %32, 0
  %33 = add i32 %3, 6
  br i1 %.not, label %37, label %34

34:                                               ; preds = %5
  %35 = load i32, ptr @hf_sapdiag_item_ui_event_navigation_data, align 4
  %36 = tail call ptr @proto_tree_add_item(ptr noundef %2, i32 noundef %35, ptr noundef %0, i32 noundef %31, i32 noundef 1, i32 noundef 0)
  br label %49

37:                                               ; preds = %5
  %38 = load i32, ptr @hf_sapdiag_item_ui_event_data, align 4
  %39 = tail call ptr @proto_tree_add_item(ptr noundef %2, i32 noundef %38, ptr noundef %0, i32 noundef %31, i32 noundef 1, i32 noundef 0)
  %40 = load i32, ptr @hf_sapdiag_item_ui_event_data, align 4
  %41 = tail call ptr @proto_tree_add_item(ptr noundef %2, i32 noundef %40, ptr noundef %0, i32 noundef %33, i32 noundef 1, i32 noundef 0)
  %42 = add i32 %3, 7
  %43 = load i32, ptr @hf_sapdiag_item_ui_event_data, align 4
  %44 = tail call ptr @proto_tree_add_item(ptr noundef %2, i32 noundef %43, ptr noundef %0, i32 noundef %42, i32 noundef 1, i32 noundef 0)
  %45 = add i32 %3, 8
  %46 = load i32, ptr @hf_sapdiag_item_ui_event_data, align 4
  %47 = tail call ptr @proto_tree_add_item(ptr noundef %2, i32 noundef %46, ptr noundef %0, i32 noundef %45, i32 noundef 1, i32 noundef 0)
  %48 = add i32 %3, 9
  br label %49

49:                                               ; preds = %37, %34
  %.sink = phi i32 [ -9, %37 ], [ -6, %34 ]
  %.090 = phi i32 [ %48, %37 ], [ %33, %34 ]
  %50 = add nsw i32 %4, %.sink
  %51 = load i32, ptr @hf_sapdiag_item_ui_event_control_row, align 4
  %52 = tail call ptr @proto_tree_add_item(ptr noundef %2, i32 noundef %51, ptr noundef %0, i32 noundef %.090, i32 noundef 2, i32 noundef 0)
  %53 = add i32 %.090, 2
  %54 = load i32, ptr @hf_sapdiag_item_ui_event_control_col, align 4
  %55 = tail call ptr @proto_tree_add_item(ptr noundef %2, i32 noundef %54, ptr noundef %0, i32 noundef %53, i32 noundef 2, i32 noundef 0)
  %56 = add i32 %.090, 4
  %57 = tail call zeroext i16 @tvb_get_ntohs(ptr noundef %0, i32 noundef %56)
  %58 = load i32, ptr @hf_sapdiag_item_ui_event_container_nrs, align 4
  %59 = tail call ptr @proto_tree_add_item(ptr noundef %2, i32 noundef %58, ptr noundef %0, i32 noundef %56, i32 noundef 2, i32 noundef 0)
  %60 = add nsw i32 %50, -6
  %61 = icmp ne i16 %57, 0
  %62 = icmp ne i32 %60, 0
  %63 = select i1 %61, i1 %62, i1 false
  br i1 %63, label %.lr.ph.preheader, label %._crit_edge

.lr.ph.preheader:                                 ; preds = %49
  %64 = add i32 %.090, 6
  br label %.lr.ph

.lr.ph:                                           ; preds = %.lr.ph.preheader, %.lr.ph
  %.095 = phi i16 [ %69, %.lr.ph ], [ %57, %.lr.ph.preheader ]
  %.194 = phi i32 [ %67, %.lr.ph ], [ %64, %.lr.ph.preheader ]
  %.19293 = phi i32 [ %68, %.lr.ph ], [ %60, %.lr.ph.preheader ]
  %65 = load i32, ptr @hf_sapdiag_item_ui_event_container, align 4
  %66 = tail call ptr @proto_tree_add_item(ptr noundef %2, i32 noundef %65, ptr noundef %0, i32 noundef %.194, i32 noundef 1, i32 noundef 0)
  %67 = add i32 %.194, 1
  %68 = add nsw i32 %.19293, -1
  %69 = add i16 %.095, -1
  %70 = icmp ne i16 %69, 0
  %71 = icmp ne i32 %68, 0
  %72 = select i1 %70, i1 %71, i1 false
  br i1 %72, label %.lr.ph, label %._crit_edge, !llvm.loop !14

._crit_edge:                                      ; preds = %.lr.ph, %49
  %.lcssa = phi i1 [ %61, %49 ], [ %70, %.lr.ph ]
  br i1 %.lcssa, label %73, label %76

73:                                               ; preds = %._crit_edge
  %74 = zext i16 %57 to i32
  %75 = tail call ptr (ptr, ptr, ptr, ptr, ...) @expert_add_info_format(ptr noundef %1, ptr noundef %2, ptr noundef nonnull @ei_sapdiag_dynt_focus_more_cont_ids, ptr noundef nonnull @.str.1174, i32 noundef %74)
  br label %76

76:                                               ; preds = %73, %._crit_edge
  ret void
}